target datalayout = "e-m:e-p270:32:32-p271:32:32-p272:64:64-i64:64-i128:128-f80:128-n8:16:32:64-S128"
target triple = "x86_64-pc-linux-gnu"

%struct.SDL_Renderer = type { ptr, ptr, ptr, ptr, ptr, ptr, ptr, ptr, ptr, ptr, ptr, ptr, ptr, ptr, ptr, ptr, ptr, ptr, ptr, ptr, ptr, ptr, ptr, ptr, ptr, ptr, ptr, ptr, ptr, ptr, i32, i8, ptr, i8, i8, i8, i64, i64, ptr, %struct.SDL_RenderViewState, %struct.SDL_FPoint, i32, i32, ptr, ptr, ptr, i32, float, float, float, float, %struct.SDL_FColor, i32, i32, i32, ptr, ptr, ptr, ptr, i32, %struct.SDL_FColor, float, %struct.SDL_Rect, %struct.SDL_Rect, i8, i8, i8, i8, ptr, i64, i64, i8, ptr, ptr, i32, ptr, i8, ptr, ptr }
%struct.SDL_RenderViewState = type { i32, i32, %struct.SDL_Rect, %struct.SDL_Rect, %struct.SDL_Rect, %struct.SDL_Rect, i8, %struct.SDL_FPoint, i32, i32, i32, %struct.SDL_FRect, %struct.SDL_FRect, %struct.SDL_FPoint, %struct.SDL_FPoint, %struct.SDL_FPoint }
%struct.SDL_FRect = type { float, float, float, float }
%struct.SDL_FPoint = type { float, float }
%struct.SDL_FColor = type { float, float, float, float }
%struct.SDL_Rect = type { i32, i32, i32, i32 }
%struct.GLES2_RenderData = type { ptr, i8, i8, i8, ptr, ptr, ptr, ptr, ptr, ptr, ptr, ptr, ptr, ptr, ptr, ptr, ptr, ptr, ptr, ptr, ptr, ptr, ptr, ptr, ptr, ptr, ptr, ptr, ptr, ptr, ptr, ptr, ptr, ptr, ptr, ptr, ptr, ptr, ptr, ptr, ptr, ptr, ptr, ptr, ptr, ptr, ptr, ptr, ptr, ptr, ptr, ptr, ptr, ptr, ptr, ptr, ptr, ptr, ptr, ptr, ptr, ptr, i32, [16 x i32], %struct.GLES2_ProgramCache, i8, i8, i8, i8, %struct.GLES2_DrawStateCache, i32 }
%struct.GLES2_ProgramCache = type { i32, ptr, ptr }
%struct.GLES2_DrawStateCache = type { %struct.SDL_Rect, i8, ptr, ptr, i32, i8, i8, i8, %struct.SDL_Rect, i8, i8, %struct.SDL_FColor, i8, i32, i32, ptr, ptr, [4 x [4 x float]] }
%struct.SDL_Texture = type { i32, i32, i32, i32, i32, float, float, i32, i32, i32, %struct.SDL_FColor, %struct.SDL_RenderViewState, ptr, ptr, ptr, ptr, i32, %struct.SDL_Rect, ptr, i32, i32, ptr, ptr, ptr }
%struct.GLES2_TextureData = type { i32, i8, i32, i32, i32, ptr, i32, i8, i8, i32, i32, i32, i32, [4 x float], i32, i32, i32, ptr }

; Function Attrs: nounwind uwtable
define internal void @GL_ClearErrors(ptr noundef %0) #0 {
  %2 = alloca ptr, align 8
  %3 = alloca ptr, align 8
  %4 = alloca i32, align 4
  store ptr %0, ptr %2, align 8
  call void @llvm.lifetime.start.p0(i64 8, ptr %3) #6
  %5 = load ptr, ptr %2, align 8
  %6 = getelementptr inbounds nuw %struct.SDL_Renderer, ptr %5, i32 0, i32 77
  %7 = load ptr, ptr %6, align 8
  store ptr %7, ptr %3, align 8
  %8 = load ptr, ptr %3, align 8
  %9 = getelementptr inbounds nuw %struct.GLES2_RenderData, ptr %8, i32 0, i32 1
  %10 = load i8, ptr %9, align 8, !range !3, !noundef !4
  %11 = trunc i8 %10 to i1
  br i1 %11, label %13, label %12

12:                                               ; preds = %1
  store i32 1, ptr %4, align 4
  br label %22

13:                                               ; preds = %1
  br label %14

14:                                               ; preds = %20, %13
  %15 = load ptr, ptr %3, align 8
  %16 = getelementptr inbounds nuw %struct.GLES2_RenderData, ptr %15, i32 0, i32 27
  %17 = load ptr, ptr %16, align 8
  %18 = call i32 %17()
  %19 = icmp ne i32 %18, 0
  br i1 %19, label %20, label %21

20:                                               ; preds = %14
  br label %14, !llvm.loop !19

21:                                               ; preds = %14
  store i32 0, ptr %4, align 4
  br label %22

22:                                               ; preds = %21, %12
  call void @llvm.lifetime.end.p0(i64 8, ptr %3) #6
  %23 = load i32, ptr %4, align 4
  switch i32 %23, label %25 [
    i32 0, label %24
    i32 1, label %24
  ]

24:                                               ; preds = %22, %22
  ret void

25:                                               ; preds = %22
  unreachable
}

; Function Attrs: nounwind uwtable
define internal zeroext i1 @GLES2_ActivateRenderer(ptr noundef %0) #0 {
  %2 = alloca i1, align 1
  %3 = alloca ptr, align 8
  %4 = alloca ptr, align 8
  %5 = alloca i32, align 4
  store ptr %0, ptr %3, align 8
  call void @llvm.lifetime.start.p0(i64 8, ptr %4) #6
  %6 = load ptr, ptr %3, align 8
  %7 = getelementptr inbounds nuw %struct.SDL_Renderer, ptr %6, i32 0, i32 77
  %8 = load ptr, ptr %7, align 8
  store ptr %8, ptr %4, align 8
  %9 = call ptr @SDL_GL_GetCurrentContext_REAL()
  %10 = load ptr, ptr %4, align 8
  %11 = getelementptr inbounds nuw %struct.GLES2_RenderData, ptr %10, i32 0, i32 0
  %12 = load ptr, ptr %11, align 8
  %13 = icmp ne ptr %9, %12
  br i1 %13, label %14, label %27

14:                                               ; preds = %1
  %15 = load ptr, ptr %4, align 8
  %16 = getelementptr inbounds nuw %struct.GLES2_RenderData, ptr %15, i32 0, i32 69
  %17 = getelementptr inbounds nuw %struct.GLES2_DrawStateCache, ptr %16, i32 0, i32 15
  store ptr null, ptr %17, align 8
  %18 = load ptr, ptr %3, align 8
  %19 = getelementptr inbounds nuw %struct.SDL_Renderer, ptr %18, i32 0, i32 32
  %20 = load ptr, ptr %19, align 8
  %21 = load ptr, ptr %4, align 8
  %22 = getelementptr inbounds nuw %struct.GLES2_RenderData, ptr %21, i32 0, i32 0
  %23 = load ptr, ptr %22, align 8
  %24 = call zeroext i1 @SDL_GL_MakeCurrent_REAL(ptr noundef %20, ptr noundef %23)
  br i1 %24, label %26, label %25

25:                                               ; preds = %14
  store i1 false, ptr %2, align 1
  store i32 1, ptr %5, align 4
  br label %29

26:                                               ; preds = %14
  br label %27

27:                                               ; preds = %26, %1
  %28 = load ptr, ptr %3, align 8
  call void @GL_ClearErrors(ptr noundef %28)
  store i1 true, ptr %2, align 1
  store i32 1, ptr %5, align 4
  br label %29

29:                                               ; preds = %27, %25
  call void @llvm.lifetime.end.p0(i64 8, ptr %4) #6
  %30 = load i1, ptr %2, align 1
  ret i1 %30
}

; Function Attrs: nounwind uwtable
define internal void @GLES2_DestroyTexture(ptr noundef %0, ptr noundef %1) #0 {
  %3 = alloca ptr, align 8
  %4 = alloca ptr, align 8
  %5 = alloca ptr, align 8
  %6 = alloca ptr, align 8
  store ptr %0, ptr %3, align 8
  store ptr %1, ptr %4, align 8
  call void @llvm.lifetime.start.p0(i64 8, ptr %5) #6
  %7 = load ptr, ptr %3, align 8
  %8 = getelementptr inbounds nuw %struct.SDL_Renderer, ptr %7, i32 0, i32 77
  %9 = load ptr, ptr %8, align 8
  store ptr %9, ptr %5, align 8
  call void @llvm.lifetime.start.p0(i64 8, ptr %6) #6
  %10 = load ptr, ptr %4, align 8
  %11 = getelementptr inbounds nuw %struct.SDL_Texture, ptr %10, i32 0, i32 21
  %12 = load ptr, ptr %11, align 8
  store ptr %12, ptr %6, align 8
  %13 = load ptr, ptr %3, align 8
  %14 = call zeroext i1 @GLES2_ActivateRenderer(ptr noundef %13)
  %15 = load ptr, ptr %5, align 8
  %16 = getelementptr inbounds nuw %struct.GLES2_RenderData, ptr %15, i32 0, i32 69
  %17 = getelementptr inbounds nuw %struct.GLES2_DrawStateCache, ptr %16, i32 0, i32 2
  %18 = load ptr, ptr %17, align 8
  %19 = load ptr, ptr %4, align 8
  %20 = icmp eq ptr %18, %19
  br i1 %20, label %21, label %25

21:                                               ; preds = %2
  %22 = load ptr, ptr %5, align 8
  %23 = getelementptr inbounds nuw %struct.GLES2_RenderData, ptr %22, i32 0, i32 69
  %24 = getelementptr inbounds nuw %struct.GLES2_DrawStateCache, ptr %23, i32 0, i32 2
  store ptr null, ptr %24, align 8
  br label %25

25:                                               ; preds = %21, %2
  %26 = load ptr, ptr %5, align 8
  %27 = getelementptr inbounds nuw %struct.GLES2_RenderData, ptr %26, i32 0, i32 69
  %28 = getelementptr inbounds nuw %struct.GLES2_DrawStateCache, ptr %27, i32 0, i32 3
  %29 = load ptr, ptr %28, align 8
  %30 = load ptr, ptr %4, align 8
  %31 = icmp eq ptr %29, %30
  br i1 %31, label %32, label %36

32:                                               ; preds = %25
  %33 = load ptr, ptr %5, align 8
  %34 = getelementptr inbounds nuw %struct.GLES2_RenderData, ptr %33, i32 0, i32 69
  %35 = getelementptr inbounds nuw %struct.GLES2_DrawStateCache, ptr %34, i32 0, i32 3
  store ptr null, ptr %35, align 8
  br label %36

36:                                               ; preds = %32, %25
  %37 = load ptr, ptr %6, align 8
  %38 = icmp ne ptr %37, null
  br i1 %38, label %39, label %94

39:                                               ; preds = %36
  %40 = load ptr, ptr %6, align 8
  %41 = getelementptr inbounds nuw %struct.GLES2_TextureData, ptr %40, i32 0, i32 0
  %42 = load i32, ptr %41, align 8
  %43 = icmp ne i32 %42, 0
  br i1 %43, label %44, label %55

44:                                               ; preds = %39
  %45 = load ptr, ptr %6, align 8
  %46 = getelementptr inbounds nuw %struct.GLES2_TextureData, ptr %45, i32 0, i32 1
  %47 = load i8, ptr %46, align 4, !range !3, !noundef !4
  %48 = trunc i8 %47 to i1
  br i1 %48, label %55, label %49

49:                                               ; preds = %44
  %50 = load ptr, ptr %5, align 8
  %51 = getelementptr inbounds nuw %struct.GLES2_RenderData, ptr %50, i32 0, i32 17
  %52 = load ptr, ptr %51, align 8
  %53 = load ptr, ptr %6, align 8
  %54 = getelementptr inbounds nuw %struct.GLES2_TextureData, ptr %53, i32 0, i32 0
  call void %52(i32 noundef 1, ptr noundef %54)
  br label %55

55:                                               ; preds = %49, %44, %39
  %56 = load ptr, ptr %6, align 8
  %57 = getelementptr inbounds nuw %struct.GLES2_TextureData, ptr %56, i32 0, i32 9
  %58 = load i32, ptr %57, align 8
  %59 = icmp ne i32 %58, 0
  br i1 %59, label %60, label %71

60:                                               ; preds = %55
  %61 = load ptr, ptr %6, align 8
  %62 = getelementptr inbounds nuw %struct.GLES2_TextureData, ptr %61, i32 0, i32 10
  %63 = load i32, ptr %62, align 4
  %64 = icmp ne i32 %63, 0
  br i1 %64, label %71, label %65

65:                                               ; preds = %60
  %66 = load ptr, ptr %5, align 8
  %67 = getelementptr inbounds nuw %struct.GLES2_RenderData, ptr %66, i32 0, i32 17
  %68 = load ptr, ptr %67, align 8
  %69 = load ptr, ptr %6, align 8
  %70 = getelementptr inbounds nuw %struct.GLES2_TextureData, ptr %69, i32 0, i32 9
  call void %68(i32 noundef 1, ptr noundef %70)
  br label %71

71:                                               ; preds = %65, %60, %55
  %72 = load ptr, ptr %6, align 8
  %73 = getelementptr inbounds nuw %struct.GLES2_TextureData, ptr %72, i32 0, i32 11
  %74 = load i32, ptr %73, align 8
  %75 = icmp ne i32 %74, 0
  br i1 %75, label %76, label %87

76:                                               ; preds = %71
  %77 = load ptr, ptr %6, align 8
  %78 = getelementptr inbounds nuw %struct.GLES2_TextureData, ptr %77, i32 0, i32 12
  %79 = load i32, ptr %78, align 4
  %80 = icmp ne i32 %79, 0
  br i1 %80, label %87, label %81

81:                                               ; preds = %76
  %82 = load ptr, ptr %5, align 8
  %83 = getelementptr inbounds nuw %struct.GLES2_RenderData, ptr %82, i32 0, i32 17
  %84 = load ptr, ptr %83, align 8
  %85 = load ptr, ptr %6, align 8
  %86 = getelementptr inbounds nuw %struct.GLES2_TextureData, ptr %85, i32 0, i32 11
  call void %84(i32 noundef 1, ptr noundef %86)
  br label %87

87:                                               ; preds = %81, %76, %71
  %88 = load ptr, ptr %6, align 8
  %89 = getelementptr inbounds nuw %struct.GLES2_TextureData, ptr %88, i32 0, i32 5
  %90 = load ptr, ptr %89, align 8
  call void @SDL_free_REAL(ptr noundef %90)
  %91 = load ptr, ptr %6, align 8
  call void @SDL_free_REAL(ptr noundef %91)
  %92 = load ptr, ptr %4, align 8
  %93 = getelementptr inbounds nuw %struct.SDL_Texture, ptr %92, i32 0, i32 21
  store ptr null, ptr %93, align 8
  br label %94

94:                                               ; preds = %87, %36
  call void @llvm.lifetime.end.p0(i64 8, ptr %6) #6
  call void @llvm.lifetime.end.p0(i64 8, ptr %5) #6
  ret void
}