; Function Attrs: nounwind uwtable
define internal void @GLES2_DestroyTexture(ptr noundef readonly captures(none) %0, ptr noundef captures(address) %1) #0 {
  %3 = getelementptr inbounds nuw i8, ptr %0, i64 696
  %4 = load ptr, ptr %3, align 8
  %5 = getelementptr inbounds nuw i8, ptr %1, i64 280
  %6 = load ptr, ptr %5, align 8
  %7 = tail call ptr @SDL_GL_GetCurrentContext_REAL() #10
  %8 = load ptr, ptr %4, align 8
  %.not.i = icmp eq ptr %7, %8
  br i1 %.not.i, label %14, label %9

9:                                                ; preds = %2
  %10 = getelementptr inbounds nuw i8, ptr %4, i64 680
  store ptr null, ptr %10, align 8
  %11 = getelementptr inbounds nuw i8, ptr %0, i64 248
  %12 = load ptr, ptr %11, align 8
  %13 = tail call zeroext i1 @SDL_GL_MakeCurrent_REAL(ptr noundef %12, ptr noundef %8) #10
  br i1 %13, label %14, label %GLES2_ActivateRenderer.exit

14:                                               ; preds = %9, %2
  %.val.i = load ptr, ptr %3, align 8
  %15 = getelementptr inbounds nuw i8, ptr %.val.i, i64 8
  %16 = load i8, ptr %15, align 8, !range !5, !noundef !6
  %17 = trunc nuw i8 %16 to i1
  br i1 %17, label %.preheader.i.i, label %GLES2_ActivateRenderer.exit

.preheader.i.i:                                   ; preds = %14
  %18 = getelementptr inbounds nuw i8, ptr %.val.i, i64 200
  br label %19

19:                                               ; preds = %19, %.preheader.i.i
  %20 = load ptr, ptr %18, align 8
  %21 = tail call i32 %20() #10
  %.not.i.i = icmp eq i32 %21, 0
  br i1 %.not.i.i, label %GLES2_ActivateRenderer.exit, label %19, !llvm.loop !7

GLES2_ActivateRenderer.exit:                      ; preds = %19, %9, %14
  %22 = getelementptr inbounds nuw i8, ptr %4, i64 608
  %23 = load ptr, ptr %22, align 8
  %24 = icmp eq ptr %23, %1
  br i1 %24, label %25, label %26

25:                                               ; preds = %GLES2_ActivateRenderer.exit
  store ptr null, ptr %22, align 8
  br label %26

26:                                               ; preds = %25, %GLES2_ActivateRenderer.exit
  %27 = getelementptr inbounds nuw i8, ptr %4, i64 616
  %28 = load ptr, ptr %27, align 8
  %29 = icmp eq ptr %28, %1
  br i1 %29, label %30, label %31

30:                                               ; preds = %26
  store ptr null, ptr %27, align 8
  br label %31

31:                                               ; preds = %30, %26
  %.not = icmp eq ptr %6, null
  br i1 %.not, label %62, label %32

32:                                               ; preds = %31
  %33 = load i32, ptr %6, align 8
  %.not25 = icmp eq i32 %33, 0
  br i1 %.not25, label %41, label %34

34:                                               ; preds = %32
  %35 = getelementptr inbounds nuw i8, ptr %6, i64 4
  %36 = load i8, ptr %35, align 4, !range !5, !noundef !6
  %37 = trunc nuw i8 %36 to i1
  br i1 %37, label %41, label %38

38:                                               ; preds = %34
  %39 = getelementptr inbounds nuw i8, ptr %4, i64 120
  %40 = load ptr, ptr %39, align 8
  tail call void %40(i32 noundef 1, ptr noundef nonnull %6) #10
  br label %41

41:                                               ; preds = %38, %34, %32
  %42 = getelementptr inbounds nuw i8, ptr %6, i64 40
  %43 = load i32, ptr %42, align 8
  %.not26 = icmp eq i32 %43, 0
  br i1 %.not26, label %50, label %44

44:                                               ; preds = %41
  %45 = getelementptr inbounds nuw i8, ptr %6, i64 44
  %46 = load i32, ptr %45, align 4
  %.not27 = icmp eq i32 %46, 0
  br i1 %.not27, label %47, label %50

47:                                               ; preds = %44
  %48 = getelementptr inbounds nuw i8, ptr %4, i64 120
  %49 = load ptr, ptr %48, align 8
  tail call void %49(i32 noundef 1, ptr noundef nonnull %42) #10
  br label %50

50:                                               ; preds = %47, %44, %41
  %51 = getelementptr inbounds nuw i8, ptr %6, i64 48
  %52 = load i32, ptr %51, align 8
  %.not28 = icmp eq i32 %52, 0
  br i1 %.not28, label %59, label %53

53:                                               ; preds = %50
  %54 = getelementptr inbounds nuw i8, ptr %6, i64 52
  %55 = load i32, ptr %54, align 4
  %.not29 = icmp eq i32 %55, 0
  br i1 %.not29, label %56, label %59

56:                                               ; preds = %53
  %57 = getelementptr inbounds nuw i8, ptr %4, i64 120
  %58 = load ptr, ptr %57, align 8
  tail call void %58(i32 noundef 1, ptr noundef nonnull %51) #10
  br label %59

59:                                               ; preds = %56, %53, %50
  %60 = getelementptr inbounds nuw i8, ptr %6, i64 24
  %61 = load ptr, ptr %60, align 8
  tail call void @SDL_free_REAL(ptr noundef %61) #10
  tail call void @SDL_free_REAL(ptr noundef nonnull %6) #10
  store ptr null, ptr %5, align 8
  br label %62

62:                                               ; preds = %59, %31
  ret void
}